target datalayout = "e-m:e-p270:32:32-p271:32:32-p272:64:64-i64:64-i128:128-f80:128-n8:16:32:64-S128"
target triple = "x86_64-pc-linux-gnu"

%"class.cv::Matx.0" = type { [9 x double] }

; Function Attrs: inlinehint mustprogress nounwind uwtable
define linkonce_odr hidden noundef nonnull align 8 dereferenceable(8) ptr @_ZNK2cv4MatxIdLi9ELi1EEclEi(ptr noundef nonnull align 8 dereferenceable(72) %0, i32 noundef %1) #4 comdat align 2 {
  %3 = alloca ptr, align 8
  %4 = alloca i32, align 4
  store ptr %0, ptr %3, align 8, !tbaa !83
  store i32 %1, ptr %4, align 4, !tbaa !7
  %5 = load ptr, ptr %3, align 8
  %6 = getelementptr inbounds nuw %"class.cv::Matx.0", ptr %5, i32 0, i32 0
  %7 = load i32, ptr %4, align 4, !tbaa !7
  %8 = sext i32 %7 to i64
  %9 = getelementptr inbounds [9 x double], ptr %6, i64 0, i64 %8
  ret ptr %9
}

; Function Attrs: mustprogress uwtable
define hidden noundef double @_ZN2cv5sqpnp10PoseSolver18orthogonalityErrorERKNS_4MatxIdLi9ELi1EEE(ptr noundef nonnull align 8 dereferenceable(72) %0) #6 align 2 {
  %2 = alloca ptr, align 8
  %3 = alloca double, align 8
  %4 = alloca double, align 8
  %5 = alloca double, align 8
  %6 = alloca double, align 8
  %7 = alloca double, align 8
  %8 = alloca double, align 8
  store ptr %0, ptr %2, align 8, !tbaa !83
  call void @llvm.lifetime.start.p0(i64 8, ptr %3) #3
  %9 = load ptr, ptr %2, align 8, !tbaa !83
  %10 = call noundef nonnull align 8 dereferenceable(8) ptr @_ZNK2cv4MatxIdLi9ELi1EEclEi(ptr noundef nonnull align 8 dereferenceable(72) %9, i32 noundef 0)
  %11 = load double, ptr %10, align 8, !tbaa !3
  %12 = load ptr, ptr %2, align 8, !tbaa !83
  %13 = call noundef nonnull align 8 dereferenceable(8) ptr @_ZNK2cv4MatxIdLi9ELi1EEclEi(ptr noundef nonnull align 8 dereferenceable(72) %12, i32 noundef 0)
  %14 = load double, ptr %13, align 8, !tbaa !3
  %15 = load ptr, ptr %2, align 8, !tbaa !83
  %16 = call noundef nonnull align 8 dereferenceable(8) ptr @_ZNK2cv4MatxIdLi9ELi1EEclEi(ptr noundef nonnull align 8 dereferenceable(72) %15, i32 noundef 1)
  %17 = load double, ptr %16, align 8, !tbaa !3
  %18 = load ptr, ptr %2, align 8, !tbaa !83
  %19 = call noundef nonnull align 8 dereferenceable(8) ptr @_ZNK2cv4MatxIdLi9ELi1EEclEi(ptr noundef nonnull align 8 dereferenceable(72) %18, i32 noundef 1)
  %20 = load double, ptr %19, align 8, !tbaa !3
  %21 = fmul double %17, %20
  %22 = call double @llvm.fmuladd.f64(double %11, double %14, double %21)
  %23 = load ptr, ptr %2, align 8, !tbaa !83
  %24 = call noundef nonnull align 8 dereferenceable(8) ptr @_ZNK2cv4MatxIdLi9ELi1EEclEi(ptr noundef nonnull align 8 dereferenceable(72) %23, i32 noundef 2)
  %25 = load double, ptr %24, align 8, !tbaa !3
  %26 = load ptr, ptr %2, align 8, !tbaa !83
  %27 = call noundef nonnull align 8 dereferenceable(8) ptr @_ZNK2cv4MatxIdLi9ELi1EEclEi(ptr noundef nonnull align 8 dereferenceable(72) %26, i32 noundef 2)
  %28 = load double, ptr %27, align 8, !tbaa !3
  %29 = call double @llvm.fmuladd.f64(double %25, double %28, double %22)
  store double %29, ptr %3, align 8, !tbaa !3
  call void @llvm.lifetime.start.p0(i64 8, ptr %4) #3
  %30 = load ptr, ptr %2, align 8, !tbaa !83
  %31 = call noundef nonnull align 8 dereferenceable(8) ptr @_ZNK2cv4MatxIdLi9ELi1EEclEi(ptr noundef nonnull align 8 dereferenceable(72) %30, i32 noundef 3)
  %32 = load double, ptr %31, align 8, !tbaa !3
  %33 = load ptr, ptr %2, align 8, !tbaa !83
  %34 = call noundef nonnull align 8 dereferenceable(8) ptr @_ZNK2cv4MatxIdLi9ELi1EEclEi(ptr noundef nonnull align 8 dereferenceable(72) %33, i32 noundef 3)
  %35 = load double, ptr %34, align 8, !tbaa !3
  %36 = load ptr, ptr %2, align 8, !tbaa !83
  %37 = call noundef nonnull align 8 dereferenceable(8) ptr @_ZNK2cv4MatxIdLi9ELi1EEclEi(ptr noundef nonnull align 8 dereferenceable(72) %36, i32 noundef 4)
  %38 = load double, ptr %37, align 8, !tbaa !3
  %39 = load ptr, ptr %2, align 8, !tbaa !83
  %40 = call noundef nonnull align 8 dereferenceable(8) ptr @_ZNK2cv4MatxIdLi9ELi1EEclEi(ptr noundef nonnull align 8 dereferenceable(72) %39, i32 noundef 4)
  %41 = load double, ptr %40, align 8, !tbaa !3
  %42 = fmul double %38, %41
  %43 = call double @llvm.fmuladd.f64(double %32, double %35, double %42)
  %44 = load ptr, ptr %2, align 8, !tbaa !83
  %45 = call noundef nonnull align 8 dereferenceable(8) ptr @_ZNK2cv4MatxIdLi9ELi1EEclEi(ptr noundef nonnull align 8 dereferenceable(72) %44, i32 noundef 5)
  %46 = load double, ptr %45, align 8, !tbaa !3
  %47 = load ptr, ptr %2, align 8, !tbaa !83
  %48 = call noundef nonnull align 8 dereferenceable(8) ptr @_ZNK2cv4MatxIdLi9ELi1EEclEi(ptr noundef nonnull align 8 dereferenceable(72) %47, i32 noundef 5)
  %49 = load double, ptr %48, align 8, !tbaa !3
  %50 = call double @llvm.fmuladd.f64(double %46, double %49, double %43)
  store double %50, ptr %4, align 8, !tbaa !3
  call void @llvm.lifetime.start.p0(i64 8, ptr %5) #3
  %51 = load ptr, ptr %2, align 8, !tbaa !83
  %52 = call noundef nonnull align 8 dereferenceable(8) ptr @_ZNK2cv4MatxIdLi9ELi1EEclEi(ptr noundef nonnull align 8 dereferenceable(72) %51, i32 noundef 6)
  %53 = load double, ptr %52, align 8, !tbaa !3
  %54 = load ptr, ptr %2, align 8, !tbaa !83
  %55 = call noundef nonnull align 8 dereferenceable(8) ptr @_ZNK2cv4MatxIdLi9ELi1EEclEi(ptr noundef nonnull align 8 dereferenceable(72) %54, i32 noundef 6)
  %56 = load double, ptr %55, align 8, !tbaa !3
  %57 = load ptr, ptr %2, align 8, !tbaa !83
  %58 = call noundef nonnull align 8 dereferenceable(8) ptr @_ZNK2cv4MatxIdLi9ELi1EEclEi(ptr noundef nonnull align 8 dereferenceable(72) %57, i32 noundef 7)
  %59 = load double, ptr %58, align 8, !tbaa !3
  %60 = load ptr, ptr %2, align 8, !tbaa !83
  %61 = call noundef nonnull align 8 dereferenceable(8) ptr @_ZNK2cv4MatxIdLi9ELi1EEclEi(ptr noundef nonnull align 8 dereferenceable(72) %60, i32 noundef 7)
  %62 = load double, ptr %61, align 8, !tbaa !3
  %63 = fmul double %59, %62
  %64 = call double @llvm.fmuladd.f64(double %53, double %56, double %63)
  %65 = load ptr, ptr %2, align 8, !tbaa !83
  %66 = call noundef nonnull align 8 dereferenceable(8) ptr @_ZNK2cv4MatxIdLi9ELi1EEclEi(ptr noundef nonnull align 8 dereferenceable(72) %65, i32 noundef 8)
  %67 = load double, ptr %66, align 8, !tbaa !3
  %68 = load ptr, ptr %2, align 8, !tbaa !83
  %69 = call noundef nonnull align 8 dereferenceable(8) ptr @_ZNK2cv4MatxIdLi9ELi1EEclEi(ptr noundef nonnull align 8 dereferenceable(72) %68, i32 noundef 8)
  %70 = load double, ptr %69, align 8, !tbaa !3
  %71 = call double @llvm.fmuladd.f64(double %67, double %70, double %64)
  store double %71, ptr %5, align 8, !tbaa !3
  call void @llvm.lifetime.start.p0(i64 8, ptr %6) #3
  %72 = load ptr, ptr %2, align 8, !tbaa !83
  %73 = call noundef nonnull align 8 dereferenceable(8) ptr @_ZNK2cv4MatxIdLi9ELi1EEclEi(ptr noundef nonnull align 8 dereferenceable(72) %72, i32 noundef 0)
  %74 = load double, ptr %73, align 8, !tbaa !3
  %75 = load ptr, ptr %2, align 8, !tbaa !83
  %76 = call noundef nonnull align 8 dereferenceable(8) ptr @_ZNK2cv4MatxIdLi9ELi1EEclEi(ptr noundef nonnull align 8 dereferenceable(72) %75, i32 noundef 3)
  %77 = load double, ptr %76, align 8, !tbaa !3
  %78 = load ptr, ptr %2, align 8, !tbaa !83
  %79 = call noundef nonnull align 8 dereferenceable(8) ptr @_ZNK2cv4MatxIdLi9ELi1EEclEi(ptr noundef nonnull align 8 dereferenceable(72) %78, i32 noundef 1)
  %80 = load double, ptr %79, align 8, !tbaa !3
  %81 = load ptr, ptr %2, align 8, !tbaa !83
  %82 = call noundef nonnull align 8 dereferenceable(8) ptr @_ZNK2cv4MatxIdLi9ELi1EEclEi(ptr noundef nonnull align 8 dereferenceable(72) %81, i32 noundef 4)
  %83 = load double, ptr %82, align 8, !tbaa !3
  %84 = fmul double %80, %83
  %85 = call double @llvm.fmuladd.f64(double %74, double %77, double %84)
  %86 = load ptr, ptr %2, align 8, !tbaa !83
  %87 = call noundef nonnull align 8 dereferenceable(8) ptr @_ZNK2cv4MatxIdLi9ELi1EEclEi(ptr noundef nonnull align 8 dereferenceable(72) %86, i32 noundef 2)
  %88 = load double, ptr %87, align 8, !tbaa !3
  %89 = load ptr, ptr %2, align 8, !tbaa !83
  %90 = call noundef nonnull align 8 dereferenceable(8) ptr @_ZNK2cv4MatxIdLi9ELi1EEclEi(ptr noundef nonnull align 8 dereferenceable(72) %89, i32 noundef 5)
  %91 = load double, ptr %90, align 8, !tbaa !3
  %92 = call double @llvm.fmuladd.f64(double %88, double %91, double %85)
  store double %92, ptr %6, align 8, !tbaa !3
  call void @llvm.lifetime.start.p0(i64 8, ptr %7) #3
  %93 = load ptr, ptr %2, align 8, !tbaa !83
  %94 = call noundef nonnull align 8 dereferenceable(8) ptr @_ZNK2cv4MatxIdLi9ELi1EEclEi(ptr noundef nonnull align 8 dereferenceable(72) %93, i32 noundef 0)
  %95 = load double, ptr %94, align 8, !tbaa !3
  %96 = load ptr, ptr %2, align 8, !tbaa !83
  %97 = call noundef nonnull align 8 dereferenceable(8) ptr @_ZNK2cv4MatxIdLi9ELi1EEclEi(ptr noundef nonnull align 8 dereferenceable(72) %96, i32 noundef 6)
  %98 = load double, ptr %97, align 8, !tbaa !3
  %99 = load ptr, ptr %2, align 8, !tbaa !83
  %100 = call noundef nonnull align 8 dereferenceable(8) ptr @_ZNK2cv4MatxIdLi9ELi1EEclEi(ptr noundef nonnull align 8 dereferenceable(72) %99, i32 noundef 1)
  %101 = load double, ptr %100, align 8, !tbaa !3
  %102 = load ptr, ptr %2, align 8, !tbaa !83
  %103 = call noundef nonnull align 8 dereferenceable(8) ptr @_ZNK2cv4MatxIdLi9ELi1EEclEi(ptr noundef nonnull align 8 dereferenceable(72) %102, i32 noundef 7)
  %104 = load double, ptr %103, align 8, !tbaa !3
  %105 = fmul double %101, %104
  %106 = call double @llvm.fmuladd.f64(double %95, double %98, double %105)
  %107 = load ptr, ptr %2, align 8, !tbaa !83
  %108 = call noundef nonnull align 8 dereferenceable(8) ptr @_ZNK2cv4MatxIdLi9ELi1EEclEi(ptr noundef nonnull align 8 dereferenceable(72) %107, i32 noundef 2)
  %109 = load double, ptr %108, align 8, !tbaa !3
  %110 = load ptr, ptr %2, align 8, !tbaa !83
  %111 = call noundef nonnull align 8 dereferenceable(8) ptr @_ZNK2cv4MatxIdLi9ELi1EEclEi(ptr noundef nonnull align 8 dereferenceable(72) %110, i32 noundef 8)
  %112 = load double, ptr %111, align 8, !tbaa !3
  %113 = call double @llvm.fmuladd.f64(double %109, double %112, double %106)
  store double %113, ptr %7, align 8, !tbaa !3
  call void @llvm.lifetime.start.p0(i64 8, ptr %8) #3
  %114 = load ptr, ptr %2, align 8, !tbaa !83
  %115 = call noundef nonnull align 8 dereferenceable(8) ptr @_ZNK2cv4MatxIdLi9ELi1EEclEi(ptr noundef nonnull align 8 dereferenceable(72) %114, i32 noundef 3)
  %116 = load double, ptr %115, align 8, !tbaa !3
  %117 = load ptr, ptr %2, align 8, !tbaa !83
  %118 = call noundef nonnull align 8 dereferenceable(8) ptr @_ZNK2cv4MatxIdLi9ELi1EEclEi(ptr noundef nonnull align 8 dereferenceable(72) %117, i32 noundef 6)
  %119 = load double, ptr %118, align 8, !tbaa !3
  %120 = load ptr, ptr %2, align 8, !tbaa !83
  %121 = call noundef nonnull align 8 dereferenceable(8) ptr @_ZNK2cv4MatxIdLi9ELi1EEclEi(ptr noundef nonnull align 8 dereferenceable(72) %120, i32 noundef 4)
  %122 = load double, ptr %121, align 8, !tbaa !3
  %123 = load ptr, ptr %2, align 8, !tbaa !83
  %124 = call noundef nonnull align 8 dereferenceable(8) ptr @_ZNK2cv4MatxIdLi9ELi1EEclEi(ptr noundef nonnull align 8 dereferenceable(72) %123, i32 noundef 7)
  %125 = load double, ptr %124, align 8, !tbaa !3
  %126 = fmul double %122, %125
  %127 = call double @llvm.fmuladd.f64(double %116, double %119, double %126)
  %128 = load ptr, ptr %2, align 8, !tbaa !83
  %129 = call noundef nonnull align 8 dereferenceable(8) ptr @_ZNK2cv4MatxIdLi9ELi1EEclEi(ptr noundef nonnull align 8 dereferenceable(72) %128, i32 noundef 5)
  %130 = load double, ptr %129, align 8, !tbaa !3
  %131 = load ptr, ptr %2, align 8, !tbaa !83
  %132 = call noundef nonnull align 8 dereferenceable(8) ptr @_ZNK2cv4MatxIdLi9ELi1EEclEi(ptr noundef nonnull align 8 dereferenceable(72) %131, i32 noundef 8)
  %133 = load double, ptr %132, align 8, !tbaa !3
  %134 = call double @llvm.fmuladd.f64(double %130, double %133, double %127)
  store double %134, ptr %8, align 8, !tbaa !3
  %135 = load double, ptr %3, align 8, !tbaa !3
  %136 = fsub double %135, 1.000000e+00
  %137 = load double, ptr %3, align 8, !tbaa !3
  %138 = fsub double %137, 1.000000e+00
  %139 = load double, ptr %4, align 8, !tbaa !3
  %140 = fsub double %139, 1.000000e+00
  %141 = load double, ptr %4, align 8, !tbaa !3
  %142 = fsub double %141, 1.000000e+00
  %143 = fmul double %140, %142
  %144 = call double @llvm.fmuladd.f64(double %136, double %138, double %143)
  %145 = load double, ptr %5, align 8, !tbaa !3
  %146 = fsub double %145, 1.000000e+00
  %147 = load double, ptr %5, align 8, !tbaa !3
  %148 = fsub double %147, 1.000000e+00
  %149 = load double, ptr %6, align 8, !tbaa !3
  %150 = load double, ptr %6, align 8, !tbaa !3
  %151 = load double, ptr %7, align 8, !tbaa !3
  %152 = load double, ptr %7, align 8, !tbaa !3
  %153 = fmul double %151, %152
  %154 = call double @llvm.fmuladd.f64(double %149, double %150, double %153)
  %155 = load double, ptr %8, align 8, !tbaa !3
  %156 = load double, ptr %8, align 8, !tbaa !3
  %157 = call double @llvm.fmuladd.f64(double %155, double %156, double %154)
  %158 = fmul double 2.000000e+00, %157
  %159 = call double @llvm.fmuladd.f64(double %146, double %148, double %158)
  %160 = fadd double %144, %159
  call void @llvm.lifetime.end.p0(i64 8, ptr %8) #3
  call void @llvm.lifetime.end.p0(i64 8, ptr %7) #3
  call void @llvm.lifetime.end.p0(i64 8, ptr %6) #3
  call void @llvm.lifetime.end.p0(i64 8, ptr %5) #3
  call void @llvm.lifetime.end.p0(i64 8, ptr %4) #3
  call void @llvm.lifetime.end.p0(i64 8, ptr %3) #3
  ret double %160
}