; Function Attrs: mustprogress nofree norecurse nosync nounwind willreturn memory(argmem: read) uwtable
define hidden noundef double @_ZN2cv5sqpnp10PoseSolver18orthogonalityErrorERKNS_4MatxIdLi9ELi1EEE(ptr noundef nonnull readonly align 8 captures(none) dereferenceable(72) %0) local_unnamed_addr #12 align 2 {
  %2 = load double, ptr %0, align 8, !tbaa !70
  %3 = getelementptr inbounds nuw i8, ptr %0, i64 8
  %4 = load double, ptr %3, align 8, !tbaa !70
  %5 = fmul double %4, %4
  %6 = tail call double @llvm.fmuladd.f64(double %2, double %2, double %5)
  %7 = getelementptr inbounds nuw i8, ptr %0, i64 16
  %8 = load double, ptr %7, align 8, !tbaa !70
  %9 = tail call double @llvm.fmuladd.f64(double %8, double %8, double %6)
  %10 = getelementptr inbounds nuw i8, ptr %0, i64 24
  %11 = load double, ptr %10, align 8, !tbaa !70
  %12 = getelementptr inbounds nuw i8, ptr %0, i64 32
  %13 = load double, ptr %12, align 8, !tbaa !70
  %14 = fmul double %13, %13
  %15 = tail call double @llvm.fmuladd.f64(double %11, double %11, double %14)
  %16 = getelementptr inbounds nuw i8, ptr %0, i64 40
  %17 = load double, ptr %16, align 8, !tbaa !70
  %18 = tail call double @llvm.fmuladd.f64(double %17, double %17, double %15)
  %19 = getelementptr inbounds nuw i8, ptr %0, i64 48
  %20 = load double, ptr %19, align 8, !tbaa !70
  %21 = getelementptr inbounds nuw i8, ptr %0, i64 56
  %22 = load double, ptr %21, align 8, !tbaa !70
  %23 = fmul double %22, %22
  %24 = tail call double @llvm.fmuladd.f64(double %20, double %20, double %23)
  %25 = getelementptr inbounds nuw i8, ptr %0, i64 64
  %26 = load double, ptr %25, align 8, !tbaa !70
  %27 = tail call double @llvm.fmuladd.f64(double %26, double %26, double %24)
  %28 = fmul double %4, %13
  %29 = tail call double @llvm.fmuladd.f64(double %2, double %11, double %28)
  %30 = tail call double @llvm.fmuladd.f64(double %8, double %17, double %29)
  %31 = fmul double %4, %22
  %32 = tail call double @llvm.fmuladd.f64(double %2, double %20, double %31)
  %33 = tail call double @llvm.fmuladd.f64(double %8, double %26, double %32)
  %34 = fmul double %13, %22
  %35 = tail call double @llvm.fmuladd.f64(double %11, double %20, double %34)
  %36 = tail call double @llvm.fmuladd.f64(double %17, double %26, double %35)
  %37 = fadd double %9, -1.000000e+00
  %38 = fadd double %18, -1.000000e+00
  %39 = fmul double %38, %38
  %40 = tail call double @llvm.fmuladd.f64(double %37, double %37, double %39)
  %41 = fadd double %27, -1.000000e+00
  %42 = fmul double %33, %33
  %43 = tail call double @llvm.fmuladd.f64(double %30, double %30, double %42)
  %44 = tail call double @llvm.fmuladd.f64(double %36, double %36, double %43)
  %45 = fmul double %44, 2.000000e+00
  %46 = tail call double @llvm.fmuladd.f64(double %41, double %41, double %45)
  %47 = fadd double %40, %46
  ret double %47
}